Certificate:
    Data:
        Version: 3 (0x2)
        Serial Number: 1 (0x1)
        Signature Algorithm: sha256WithRSAEncryption
        Issuer: C=FR, ST=Radius, L=Somewhere, O=Example Inc./emailAddress=admin@example.org, CN=Example Certificate Authority
        Validity
            Not Before: Mar 13 11:10:22 2025 GMT
            Not After : May 12 11:10:22 2025 GMT
        Subject: C=FR, ST=Radius, O=Example Inc., CN=Example Server Certificate/emailAddress=admin@example.org
        Subject Public Key Info:
            Public Key Algorithm: rsaEncryption
                Public-Key: (2048 bit)
                Modulus:
                    00:84:7a:f8:93:a6:e2:f7:52:b8:7e:a1:42:bd:38:
                    0b:88:f6:a6:aa:a6:45:7e:23:0a:ff:44:23:e7:95:
                    30:0c:fe:e0:6b:69:21:1c:44:93:aa:58:e2:43:95:
                    84:56:40:01:e0:31:91:fd:5c:cc:4c:c1:07:b9:33:
                    a0:df:8a:2d:64:3a:b7:0d:05:42:58:17:68:6b:2b:
                    ee:4c:c8:4f:7d:8c:6c:90:27:be:78:4a:00:68:45:
                    50:be:c5:8f:e2:79:ca:58:fd:03:d2:86:f5:ed:8e:
                    cd:94:07:a2:a2:a3:92:ab:6d:f4:e2:87:69:2b:52:
                    26:12:7d:d4:a6:41:4a:b5:0c:41:fb:d5:e2:44:a0:
                    a8:63:b4:e9:4e:60:ab:66:8b:1e:af:00:78:01:e6:
                    de:01:91:1e:77:96:c8:2f:20:8b:88:0c:da:d9:8c:
                    63:8e:ef:22:03:24:0f:06:f5:ca:dc:d2:7c:fd:cc:
                    fe:65:4b:2e:37:ea:0e:55:fe:65:a8:a8:5d:26:03:
                    86:ff:25:63:ed:d7:3c:2a:3b:61:e9:48:37:75:f0:
                    34:95:0c:2d:53:33:29:bc:52:8b:4e:12:1e:32:e4:
                    b0:54:cc:b6:2a:d1:69:88:6b:89:db:2e:63:bb:eb:
                    75:b7:db:42:6a:1c:b9:db:67:9f:b8:55:4a:63:9d:
                    c1:2f
                Exponent: 65537 (0x10001)
        X509v3 extensions:
            X509v3 Extended Key Usage: 
                TLS Web Server Authentication
            X509v3 CRL Distribution Points: 
                Full Name:
                  URI:http://www.example.com/example_ca.crl
            X509v3 Certificate Policies: 
                Policy: 1.3.6.1.4.1.40808.1.3.2
            X509v3 Subject Key Identifier: 
                22:69:E6:4C:49:DD:BA:8B:05:1D:C6:CF:FD:49:38:82:89:B5:78:72
            X509v3 Authority Key Identifier: 
                51:3C:E3:81:6B:AD:29:02:72:89:2E:E6:88:1B:32:2B:AD:30:4F:8F
    Signature Algorithm: sha256WithRSAEncryption
    Signature Value:
        a7:e3:24:ea:a9:10:c1:f8:d0:fc:ae:29:f8:5f:80:3d:ef:92:
        fe:70:6e:a8:60:35:f3:30:da:8a:67:73:05:93:e8:5d:7b:ab:
        81:33:10:03:d6:3e:e0:ce:91:99:44:6e:4e:b0:43:ec:55:e9:
        28:9c:c7:f7:c3:03:1a:f2:5e:c2:b7:06:45:95:f9:ed:ac:92:
        64:df:a9:9f:53:a4:65:82:c6:73:c5:58:5a:84:b2:5d:a1:e9:
        39:b5:1a:a4:18:f1:7d:a5:b8:fc:44:31:8a:75:a8:ba:9d:97:
        e3:db:1a:9a:d0:45:7f:6a:92:a4:56:24:22:c9:e6:c3:5c:c6:
        7e:6f:47:40:3c:0d:50:01:2c:c9:1e:76:2c:71:b8:20:1d:5c:
        3e:97:0b:58:ca:ef:c3:c5:06:2a:0d:13:eb:41:bd:c6:45:64:
        03:ff:c4:e0:31:28:69:3b:35:c3:17:1a:24:6a:39:a5:65:d1:
        1b:90:96:ce:b0:46:3e:ae:ab:4e:19:86:30:47:25:85:72:2e:
        6a:23:52:8b:7a:f4:4f:cf:32:4c:df:ff:c5:e1:c4:75:91:94:
        44:a9:82:b9:8f:14:13:8c:54:e0:79:cd:d9:d7:49:34:7f:d0:
        ff:47:7d:9c:a7:c1:28:ac:33:12:c1:1e:b3:cf:ab:e5:4c:3d:
        24:3e:04:85
-----BEGIN CERTIFICATE-----
MIIENjCCAx6gAwIBAgIBATANBgkqhkiG9w0BAQsFADCBkzELMAkGA1UEBhMCRlIx
DzANBgNVBAgMBlJhZGl1czESMBAGA1UEBwwJU29tZXdoZXJlMRUwEwYDVQQKDAxF
eGFtcGxlIEluYy4xIDAeBgkqhkiG9w0BCQEWEWFkbWluQGV4YW1wbGUub3JnMSYw
JAYDVQQDDB1FeGFtcGxlIENlcnRpZmljYXRlIEF1dGhvcml0eTAeFw0yNTAzMTMx
MTEwMjJaFw0yNTA1MTIxMTEwMjJaMHwxCzAJBgNVBAYTAkZSMQ8wDQYDVQQIDAZS
YWRpdXMxFTATBgNVBAoMDEV4YW1wbGUgSW5jLjEjMCEGA1UEAwwaRXhhbXBsZSBT
ZXJ2ZXIgQ2VydGlmaWNhdGUxIDAeBgkqhkiG9w0BCQEWEWFkbWluQGV4YW1wbGUu
b3JnMIIBIjANBgkqhkiG9w0BAQEFAAOCAQ8AMIIBCgKCAQEAhHr4k6bi91K4fqFC
vTgLiPamqqZFfiMK/0Qj55UwDP7ga2khHESTqljiQ5WEVkAB4DGR/VzMTMEHuTOg
34otZDq3DQVCWBdoayvuTMhPfYxskCe+eEoAaEVQvsWP4nnKWP0D0ob17Y7NlAei
oqOSq2304odpK1ImEn3UpkFKtQxB+9XiRKCoY7TpTmCrZoserwB4AebeAZEed5bI
LyCLiAza2Yxjju8iAyQPBvXK3NJ8/cz+ZUsuN+oOVf5lqKhdJgOG/yVj7dc8Kjth
6Ug3dfA0lQwtUzMpvFKLThIeMuSwVMy2KtFpiGuJ2y5ju+t1t9tCahy522efuFVK
Y53BLwIDAQABo4GqMIGnMBMGA1UdJQQMMAoGCCsGAQUFBwMBMDYGA1UdHwQvMC0w
K6ApoCeGJWh0dHA6Ly93d3cuZXhhbXBsZS5jb20vZXhhbXBsZV9jYS5jcmwwGAYD
VR0gBBEwDzANBgsrBgEEAYK+aAEDAjAdBgNVHQ4EFgQUImnmTEnduosFHcbP/Uk4
gom1eHIwHwYDVR0jBBgwFoAUUTzjgWutKQJyiS7miBsyK60wT48wDQYJKoZIhvcN
AQELBQADggEBAKfjJOqpEMH40PyuKfhfgD3vkv5wbqhgNfMw2opncwWT6F17q4Ez
EAPWPuDOkZlEbk6wQ+xV6Sicx/fDAxryXsK3BkWV+e2skmTfqZ9TpGWCxnPFWFqE
sl2h6Tm1GqQY8X2luPxEMYp1qLqdl+PbGprQRX9qkqRWJCLJ5sNcxn5vR0A8DVAB
LMkedixxuCAdXD6XC1jK78PFBioNE+tBvcZFZAP/xOAxKGk7NcMXGiRqOaVl0RuQ
ls6wRj6uq04ZhjBHJYVyLmojUot69E/PMkzf/8XhxHWRlESpgrmPFBOMVOB5zdnX
STR/0P9HfZynwSisMxLBHrPPq+VMPSQ+BIU=
-----END CERTIFICATE-----
