Certificate:
    Data:
        Version: 3 (0x2)
        Serial Number: 2 (0x2)
        Signature Algorithm: sha256WithRSAEncryption
        Issuer: C=FR, ST=Radius, L=Somewhere, O=Example Inc./emailAddress=admin@example.org, CN=Example Certificate Authority
        Validity
            Not Before: Mar 13 11:10:22 2025 GMT
            Not After : May 12 11:10:22 2025 GMT
        Subject: C=FR, ST=Radius, O=Example Inc., CN=user@example.org/emailAddress=user@example.org
        Subject Public Key Info:
            Public Key Algorithm: rsaEncryption
                Public-Key: (2048 bit)
                Modulus:
                    00:be:7a:a5:06:62:5d:b8:94:27:ba:48:df:80:21:
                    8f:19:8e:31:35:9e:4a:5c:a1:9b:0a:ba:f3:67:ce:
                    b9:fd:fe:33:23:fa:df:cb:c6:2a:a9:c1:05:d1:36:
                    39:59:ce:c6:82:09:37:5b:cc:7e:34:99:8f:01:82:
                    3f:15:5a:b1:1f:98:e1:5f:17:6b:69:11:3f:70:dc:
                    60:85:63:dc:d8:b5:c4:70:d6:ac:a4:ac:59:f1:51:
                    41:35:a1:86:22:58:28:75:a9:a4:46:78:a6:4e:e6:
                    89:dc:ef:3b:8c:00:e2:a4:06:a2:59:35:d3:c1:ec:
                    7d:de:3b:e5:d8:08:3a:0f:91:4b:81:72:a3:81:db:
                    ab:be:21:e4:27:91:47:8f:30:de:73:0a:97:b1:40:
                    e6:76:54:84:24:7e:e7:bc:33:4e:91:77:0d:bd:67:
                    e6:40:ff:47:7c:f8:b5:a4:0d:22:ba:57:4d:14:69:
                    7e:9d:bc:7f:bc:98:c8:bb:90:f8:86:fb:95:52:01:
                    2d:9f:7a:fe:b9:b0:53:43:fa:fd:7c:61:d8:f5:cf:
                    97:53:44:64:7a:c8:56:17:64:f1:9d:d6:82:ca:35:
                    82:4f:a1:cc:7a:a9:ca:8c:e4:b6:e9:cc:a3:cf:c5:
                    bc:6b:61:a3:85:fc:26:72:65:1a:ad:ec:70:f0:c8:
                    b0:d1
                Exponent: 65537 (0x10001)
        X509v3 extensions:
            X509v3 Extended Key Usage: 
                TLS Web Client Authentication
            X509v3 CRL Distribution Points: 
                Full Name:
                  URI:http://www.example.com/example_ca.crl
            X509v3 Subject Key Identifier: 
                FE:90:A2:9A:3A:12:22:F6:FC:48:3A:C7:5B:75:83:DA:DB:BB:76:FA
            X509v3 Authority Key Identifier: 
                51:3C:E3:81:6B:AD:29:02:72:89:2E:E6:88:1B:32:2B:AD:30:4F:8F
    Signature Algorithm: sha256WithRSAEncryption
    Signature Value:
        01:39:98:a4:de:d3:8c:0e:fd:81:b0:5a:3b:09:6d:88:91:0d:
        50:b8:87:13:69:7f:a7:c9:d9:f9:f4:99:c3:f9:84:b6:c4:a3:
        de:c9:5d:2d:b5:85:33:75:80:4c:94:b2:39:10:0e:9b:b6:91:
        f7:c8:a4:f9:22:df:96:59:97:2f:fe:76:a1:ee:3f:67:14:b0:
        e2:a5:8b:3d:1b:5c:a4:12:90:18:5d:51:32:7c:ae:42:47:da:
        45:b0:6f:05:d7:47:a6:74:e4:72:0e:f3:8a:8f:7a:78:da:18:
        f5:25:15:bb:d6:a2:7f:df:d2:48:ba:85:1b:56:6f:3f:9b:ff:
        4a:de:81:96:00:c2:40:2f:0e:c3:f0:af:f4:5e:86:4f:04:0d:
        1f:77:cc:88:30:24:2d:f6:ae:a3:d4:8c:d6:a8:24:4b:a3:6d:
        77:a1:3b:5a:37:fa:76:4d:7b:d6:a9:e4:4a:39:4a:e2:a6:0f:
        89:71:2e:54:c6:60:66:65:ad:41:c2:46:f6:fa:67:d3:3c:d2:
        0a:2f:2c:a2:fe:cc:b5:7c:94:14:e5:8d:e2:b6:41:fc:bc:90:
        a0:05:17:39:0b:93:48:ab:6d:cb:fe:05:fa:b5:a6:79:ef:ee:
        87:52:80:7c:d0:ed:5c:07:40:55:14:57:bb:2e:2e:18:1b:32:
        33:17:ad:82
-----BEGIN CERTIFICATE-----
MIIEETCCAvmgAwIBAgIBAjANBgkqhkiG9w0BAQsFADCBkzELMAkGA1UEBhMCRlIx
DzANBgNVBAgMBlJhZGl1czESMBAGA1UEBwwJU29tZXdoZXJlMRUwEwYDVQQKDAxF
eGFtcGxlIEluYy4xIDAeBgkqhkiG9w0BCQEWEWFkbWluQGV4YW1wbGUub3JnMSYw
JAYDVQQDDB1FeGFtcGxlIENlcnRpZmljYXRlIEF1dGhvcml0eTAeFw0yNTAzMTMx
MTEwMjJaFw0yNTA1MTIxMTEwMjJaMHExCzAJBgNVBAYTAkZSMQ8wDQYDVQQIDAZS
YWRpdXMxFTATBgNVBAoMDEV4YW1wbGUgSW5jLjEZMBcGA1UEAwwQdXNlckBleGFt
cGxlLm9yZzEfMB0GCSqGSIb3DQEJARYQdXNlckBleGFtcGxlLm9yZzCCASIwDQYJ
KoZIhvcNAQEBBQADggEPADCCAQoCggEBAL56pQZiXbiUJ7pI34AhjxmOMTWeSlyh
mwq682fOuf3+MyP638vGKqnBBdE2OVnOxoIJN1vMfjSZjwGCPxVasR+Y4V8Xa2kR
P3DcYIVj3Ni1xHDWrKSsWfFRQTWhhiJYKHWppEZ4pk7midzvO4wA4qQGolk108Hs
fd475dgIOg+RS4Fyo4Hbq74h5CeRR48w3nMKl7FA5nZUhCR+57wzTpF3Db1n5kD/
R3z4taQNIrpXTRRpfp28f7yYyLuQ+Ib7lVIBLZ96/rmwU0P6/Xxh2PXPl1NEZHrI
Vhdk8Z3Wgso1gk+hzHqpyozktunMo8/FvGtho4X8JnJlGq3scPDIsNECAwEAAaOB
kDCBjTATBgNVHSUEDDAKBggrBgEFBQcDAjA2BgNVHR8ELzAtMCugKaAnhiVodHRw
Oi8vd3d3LmV4YW1wbGUuY29tL2V4YW1wbGVfY2EuY3JsMB0GA1UdDgQWBBT+kKKa
OhIi9vxIOsdbdYPa27t2+jAfBgNVHSMEGDAWgBRRPOOBa60pAnKJLuaIGzIrrTBP
jzANBgkqhkiG9w0BAQsFAAOCAQEAATmYpN7TjA79gbBaOwltiJENULiHE2l/p8nZ
+fSZw/mEtsSj3sldLbWFM3WATJSyORAOm7aR98ik+SLfllmXL/52oe4/ZxSw4qWL
PRtcpBKQGF1RMnyuQkfaRbBvBddHpnTkcg7zio96eNoY9SUVu9aif9/SSLqFG1Zv
P5v/St6BlgDCQC8Ow/Cv9F6GTwQNH3fMiDAkLfauo9SM1qgkS6Ntd6E7Wjf6dk17
1qnkSjlK4qYPiXEuVMZgZmWtQcJG9vpn0zzSCi8sov7MtXyUFOWN4rZB/LyQoAUX
OQuTSKtty/4F+rWmee/uh1KAfNDtXAdAVRRXuy4uGBsyMxetgg==
-----END CERTIFICATE-----
